target datalayout = "e-m:e-p270:32:32-p271:32:32-p272:64:64-i64:64-i128:128-f80:128-n8:16:32:64-S128"
target triple = "x86_64-pc-linux-gnu"

%"class.llvm::Value" = type { i8, i8, i16, i32, ptr, ptr }
%"class.llvm::Use" = type { ptr, ptr, ptr, ptr }

; Function Attrs: mustprogress nounwind uwtable
define linkonce_odr hidden void @_ZN4llvm3UseC2EPNS_4UserE(ptr noundef nonnull align 8 dereferenceable(32) %0, ptr noundef %1) unnamed_addr #0 comdat align 2 {
  %3 = alloca ptr, align 8
  %4 = alloca ptr, align 8
  store ptr %0, ptr %3, align 8
  store ptr %1, ptr %4, align 8
  %5 = load ptr, ptr %3, align 8
  %6 = getelementptr inbounds nuw %"class.llvm::Use", ptr %5, i32 0, i32 0
  store ptr null, ptr %6, align 8
  %7 = getelementptr inbounds nuw %"class.llvm::Use", ptr %5, i32 0, i32 1
  store ptr null, ptr %7, align 8
  %8 = getelementptr inbounds nuw %"class.llvm::Use", ptr %5, i32 0, i32 2
  store ptr null, ptr %8, align 8
  %9 = getelementptr inbounds nuw %"class.llvm::Use", ptr %5, i32 0, i32 3
  %10 = load ptr, ptr %4, align 8
  store ptr %10, ptr %9, align 8
  ret void
}

; Function Attrs: mustprogress nounwind uwtable
define dso_local noundef ptr @_ZN4llvm4UsernwEmjj(i64 noundef %0, i32 noundef %1, i32 noundef %2) #0 align 2 {
  %4 = alloca i64, align 8
  %5 = alloca i32, align 4
  %6 = alloca i32, align 4
  %7 = alloca i32, align 4
  %8 = alloca ptr, align 8
  %9 = alloca ptr, align 8
  %10 = alloca ptr, align 8
  %11 = alloca ptr, align 8
  %12 = alloca ptr, align 8
  %13 = alloca i64, align 8
  %14 = alloca i32, align 4
  %15 = alloca i32, align 4
  store i64 %0, ptr %13, align 8
  store i32 %1, ptr %14, align 4
  store i32 %2, ptr %15, align 4
  %16 = load i64, ptr %13, align 8
  %17 = load i32, ptr %14, align 4
  %18 = load i32, ptr %15, align 4
  store i64 %16, ptr %4, align 8
  store i32 %17, ptr %5, align 4
  store i32 %18, ptr %6, align 4
  %19 = load i32, ptr %6, align 4
  %20 = icmp eq i32 %19, 0
  br i1 %20, label %21, label %22

21:                                               ; preds = %3
  br label %26

22:                                               ; preds = %3
  %23 = load i32, ptr %6, align 4
  %24 = zext i32 %23 to i64
  %25 = add i64 %24, 8
  br label %26

26:                                               ; preds = %22, %21
  %27 = phi i64 [ 0, %21 ], [ %25, %22 ]
  %28 = trunc i64 %27 to i32
  store i32 %28, ptr %7, align 4
  %29 = load i64, ptr %4, align 8
  %30 = load i32, ptr %5, align 4
  %31 = zext i32 %30 to i64
  %32 = mul i64 32, %31
  %33 = add i64 %29, %32
  %34 = load i32, ptr %7, align 4
  %35 = zext i32 %34 to i64
  %36 = add i64 %33, %35
  %37 = call noalias noundef nonnull ptr @_Znwm(i64 noundef %36) #7
  store ptr %37, ptr %8, align 8
  %38 = load ptr, ptr %8, align 8
  %39 = load i32, ptr %7, align 4
  %40 = zext i32 %39 to i64
  %41 = getelementptr inbounds i8, ptr %38, i64 %40
  store ptr %41, ptr %9, align 8
  %42 = load ptr, ptr %9, align 8
  %43 = load i32, ptr %5, align 4
  %44 = zext i32 %43 to i64
  %45 = getelementptr inbounds %"class.llvm::Use", ptr %42, i64 %44
  store ptr %45, ptr %10, align 8
  %46 = load ptr, ptr %10, align 8
  store ptr %46, ptr %11, align 8
  %47 = load i32, ptr %5, align 4
  %48 = load ptr, ptr %11, align 8
  %49 = getelementptr inbounds nuw %"class.llvm::Value", ptr %48, i32 0, i32 3
  %50 = load i32, ptr %49, align 4
  %51 = and i32 %47, 134217727
  %52 = and i32 %50, -134217728
  %53 = or i32 %52, %51
  store i32 %53, ptr %49, align 4
  %54 = load ptr, ptr %11, align 8
  %55 = getelementptr inbounds nuw %"class.llvm::Value", ptr %54, i32 0, i32 3
  %56 = load i32, ptr %55, align 4
  %57 = and i32 %56, -1073741825
  store i32 %57, ptr %55, align 4
  %58 = load i32, ptr %6, align 4
  %59 = icmp ne i32 %58, 0
  %60 = zext i1 %59 to i32
  %61 = load ptr, ptr %11, align 8
  %62 = getelementptr inbounds nuw %"class.llvm::Value", ptr %61, i32 0, i32 3
  %63 = load i32, ptr %62, align 4
  %64 = and i32 %60, 1
  %65 = shl i32 %64, 31
  %66 = and i32 %63, 2147483647
  %67 = or i32 %66, %65
  store i32 %67, ptr %62, align 4
  br label %68

68:                                               ; preds = %72, %26
  %69 = load ptr, ptr %9, align 8
  %70 = load ptr, ptr %10, align 8
  %71 = icmp ne ptr %69, %70
  br i1 %71, label %72, label %77

72:                                               ; preds = %68
  %73 = load ptr, ptr %9, align 8
  %74 = load ptr, ptr %11, align 8
  call void @_ZN4llvm3UseC2EPNS_4UserE(ptr noundef nonnull align 8 dereferenceable(32) %73, ptr noundef %74)
  %75 = load ptr, ptr %9, align 8
  %76 = getelementptr inbounds %"class.llvm::Use", ptr %75, i32 1
  store ptr %76, ptr %9, align 8
  br label %68, !llvm.loop !7

77:                                               ; preds = %68
  %78 = load i32, ptr %6, align 4
  %79 = icmp ne i32 %78, 0
  br i1 %79, label %80, label %88

80:                                               ; preds = %77
  %81 = load ptr, ptr %8, align 8
  %82 = load i32, ptr %6, align 4
  %83 = zext i32 %82 to i64
  %84 = getelementptr inbounds i8, ptr %81, i64 %83
  store ptr %84, ptr %12, align 8
  %85 = load i32, ptr %6, align 4
  %86 = zext i32 %85 to i64
  %87 = load ptr, ptr %12, align 8
  store i64 %86, ptr %87, align 8
  br label %88

88:                                               ; preds = %80, %77
  %89 = load ptr, ptr %11, align 8
  ret ptr %89
}