; Function Attrs: mustprogress nounwind uwtable
define dso_local noundef nonnull ptr @_ZN4llvm4UsernwEmjj(i64 noundef %0, i32 noundef %1, i32 noundef %2) local_unnamed_addr #0 align 2 {
  %4 = icmp eq i32 %2, 0
  %5 = zext i32 %2 to i64
  %6 = add i32 %2, 8
  %7 = select i1 %4, i32 0, i32 %6
  %8 = zext i32 %1 to i64
  %9 = shl nuw nsw i64 %8, 5
  %10 = add i64 %9, %0
  %11 = zext i32 %7 to i64
  %12 = add i64 %10, %11
  %13 = tail call noalias noundef nonnull ptr @_Znwm(i64 noundef %12) #9
  %14 = getelementptr inbounds i8, ptr %13, i64 %11
  %15 = getelementptr inbounds %"class.llvm::Use", ptr %14, i64 %8
  %16 = getelementptr inbounds nuw i8, ptr %15, i64 4
  %17 = load i32, ptr %16, align 4
  %18 = and i32 %1, 134217727
  %19 = and i32 %17, 939524096
  %20 = select i1 %4, i32 0, i32 -2147483648
  %21 = or disjoint i32 %20, %18
  %22 = or disjoint i32 %21, %19
  store i32 %22, ptr %16, align 4
  %.not2930 = icmp eq i32 %1, 0
  br i1 %.not2930, label %._crit_edge, label %.lr.ph

.lr.ph:                                           ; preds = %3, %.lr.ph
  %.031 = phi ptr [ %24, %.lr.ph ], [ %14, %3 ]
  %23 = getelementptr inbounds nuw i8, ptr %.031, i64 24
  tail call void @llvm.memset.p0.i64(ptr noundef nonnull align 8 dereferenceable(24) %.031, i8 0, i64 24, i1 false)
  store ptr %15, ptr %23, align 8
  %24 = getelementptr inbounds i8, ptr %.031, i64 32
  %.not29 = icmp eq ptr %24, %15
  br i1 %.not29, label %._crit_edge, label %.lr.ph, !llvm.loop !26

._crit_edge:                                      ; preds = %.lr.ph, %3
  br i1 %4, label %27, label %25

25:                                               ; preds = %._crit_edge
  %26 = getelementptr inbounds i8, ptr %13, i64 %5
  store i64 %5, ptr %26, align 8
  br label %27

27:                                               ; preds = %25, %._crit_edge
  ret ptr %15
}